; Function Attrs: mustprogress nounwind uwtable
define dso_local noundef ptr @_ZN4llvm10TimerGroup18printAllJSONValuesERNS_11raw_ostreamEPKc(ptr noundef nonnull align 8 dereferenceable(48) %0, ptr noundef %1) local_unnamed_addr #0 align 2 {
  %3 = load atomic i64, ptr @_ZL9TimerLock acquire, align 8
  %.not.i = icmp eq i64 %3, 0
  br i1 %.not.i, label %4, label %_ZN4llvm13ManagedStaticINS_3sys10SmartMutexILb1EEENS_14object_creatorIS3_EENS_14object_deleterIS3_EEEdeEv.exit

4:                                                ; preds = %2
  tail call void @_ZNK4llvm17ManagedStaticBase21RegisterManagedStaticEPFPvvEPFvS1_E(ptr noundef nonnull align 8 dereferenceable(24) @_ZL9TimerLock, ptr noundef nonnull @_ZN4llvm14object_creatorINS_3sys10SmartMutexILb1EEEE4callEv, ptr noundef nonnull @_ZN4llvm14object_deleterINS_3sys10SmartMutexILb1EEEE4callEPv) #19
  br label %_ZN4llvm13ManagedStaticINS_3sys10SmartMutexILb1EEENS_14object_creatorIS3_EENS_14object_deleterIS3_EEEdeEv.exit

_ZN4llvm13ManagedStaticINS_3sys10SmartMutexILb1EEENS_14object_creatorIS3_EENS_14object_deleterIS3_EEEdeEv.exit: ; preds = %2, %4
  %5 = load atomic i64, ptr @_ZL9TimerLock monotonic, align 8
  %.0.i2.i = inttoptr i64 %5 to ptr
  %6 = tail call noundef i32 @pthread_mutex_lock(ptr noundef nonnull %.0.i2.i) #19
  %.not.i.i.i = icmp eq i32 %6, 0
  br i1 %.not.i.i.i, label %_ZNSt10lock_guardIN4llvm3sys10SmartMutexILb1EEEEC2ERS3_.exit.preheader, label %7

_ZNSt10lock_guardIN4llvm3sys10SmartMutexILb1EEEEC2ERS3_.exit.preheader: ; preds = %_ZN4llvm13ManagedStaticINS_3sys10SmartMutexILb1EEENS_14object_creatorIS3_EENS_14object_deleterIS3_EEEdeEv.exit
  %.07 = load ptr, ptr @_ZL14TimerGroupList, align 8
  %.not8 = icmp eq ptr %.07, null
  br i1 %.not8, label %_ZNSt10lock_guardIN4llvm3sys10SmartMutexILb1EEEEC2ERS3_.exit._crit_edge, label %_ZNSt10lock_guardIN4llvm3sys10SmartMutexILb1EEEEC2ERS3_.exit

7:                                                ; preds = %_ZN4llvm13ManagedStaticINS_3sys10SmartMutexILb1EEENS_14object_creatorIS3_EENS_14object_deleterIS3_EEEdeEv.exit
  tail call void @_ZSt20__throw_system_errori(i32 noundef %6) #22
  unreachable

_ZNSt10lock_guardIN4llvm3sys10SmartMutexILb1EEEEC2ERS3_.exit: ; preds = %_ZNSt10lock_guardIN4llvm3sys10SmartMutexILb1EEEEC2ERS3_.exit.preheader, %_ZNSt10lock_guardIN4llvm3sys10SmartMutexILb1EEEEC2ERS3_.exit
  %.010 = phi ptr [ %.0, %_ZNSt10lock_guardIN4llvm3sys10SmartMutexILb1EEEEC2ERS3_.exit ], [ %.07, %_ZNSt10lock_guardIN4llvm3sys10SmartMutexILb1EEEEC2ERS3_.exit.preheader ]
  %.069 = phi ptr [ %8, %_ZNSt10lock_guardIN4llvm3sys10SmartMutexILb1EEEEC2ERS3_.exit ], [ %1, %_ZNSt10lock_guardIN4llvm3sys10SmartMutexILb1EEEEC2ERS3_.exit.preheader ]
  %8 = tail call noundef ptr @_ZN4llvm10TimerGroup15printJSONValuesERNS_11raw_ostreamEPKc(ptr noundef nonnull align 8 dereferenceable(112) %.010, ptr noundef nonnull align 8 dereferenceable(48) %0, ptr noundef %.069)
  %9 = getelementptr inbounds nuw i8, ptr %.010, i64 104
  %.0 = load ptr, ptr %9, align 8
  %.not = icmp eq ptr %.0, null
  br i1 %.not, label %_ZNSt10lock_guardIN4llvm3sys10SmartMutexILb1EEEEC2ERS3_.exit._crit_edge, label %_ZNSt10lock_guardIN4llvm3sys10SmartMutexILb1EEEEC2ERS3_.exit, !llvm.loop !76

_ZNSt10lock_guardIN4llvm3sys10SmartMutexILb1EEEEC2ERS3_.exit._crit_edge: ; preds = %_ZNSt10lock_guardIN4llvm3sys10SmartMutexILb1EEEEC2ERS3_.exit, %_ZNSt10lock_guardIN4llvm3sys10SmartMutexILb1EEEEC2ERS3_.exit.preheader
  %.06.lcssa = phi ptr [ %1, %_ZNSt10lock_guardIN4llvm3sys10SmartMutexILb1EEEEC2ERS3_.exit.preheader ], [ %8, %_ZNSt10lock_guardIN4llvm3sys10SmartMutexILb1EEEEC2ERS3_.exit ]
  %10 = tail call noundef i32 @pthread_mutex_unlock(ptr noundef nonnull %.0.i2.i) #19
  ret ptr %.06.lcssa
}